; Function Attrs: mustprogress uwtable
define void @cvClearGraph(ptr noundef %0) local_unnamed_addr #0 personality ptr @__gxx_personality_v0 {
  %2 = alloca %"class.std::__cxx11::basic_string", align 8
  %3 = alloca %"class.std::allocator", align 1
  %4 = alloca %"class.std::__cxx11::basic_string", align 8
  %5 = alloca %"class.std::allocator", align 1
  %.not = icmp eq ptr %0, null
  br i1 %.not, label %6, label %19

6:                                                ; preds = %1
  call void @llvm.lifetime.start.p0(i64 32, ptr nonnull %4) #11
  call void @llvm.lifetime.start.p0(i64 1, ptr nonnull %5) #11
  invoke void @_ZNSt7__cxx1112basic_stringIcSt11char_traitsIcESaIcEEC2EPKcRKS3_(ptr noundef nonnull align 8 dereferenceable(32) %4, ptr noundef nonnull @.str, ptr noundef nonnull align 1 dereferenceable(1) %5)
          to label %7 unwind label %9

7:                                                ; preds = %6
  invoke void @_ZN2cv5errorEiRKNSt7__cxx1112basic_stringIcSt11char_traitsIcESaIcEEEPKcS9_i(i32 noundef -27, ptr noundef nonnull align 8 dereferenceable(32) %4, ptr noundef nonnull @__func__.cvClearGraph, ptr noundef nonnull @.str.1, i32 noundef 2605) #12
          to label %8 unwind label %11

8:                                                ; preds = %7
  unreachable

9:                                                ; preds = %6
  %10 = landingpad { ptr, i32 }
          cleanup
  br label %_ZNSt7__cxx1112basic_stringIcSt11char_traitsIcESaIcEED2Ev.exit

11:                                               ; preds = %7
  %12 = landingpad { ptr, i32 }
          cleanup
  %13 = load ptr, ptr %4, align 8, !tbaa !3
  %14 = getelementptr inbounds nuw i8, ptr %4, i64 16
  %15 = icmp eq ptr %13, %14
  br i1 %15, label %_ZNKSt7__cxx1112basic_stringIcSt11char_traitsIcESaIcEE11_M_is_localEv.exit.thread.i.i, label %_ZNKSt7__cxx1112basic_stringIcSt11char_traitsIcESaIcEE11_M_is_localEv.exit.i.i

_ZNKSt7__cxx1112basic_stringIcSt11char_traitsIcESaIcEE11_M_is_localEv.exit.thread.i.i: ; preds = %11
  %16 = getelementptr inbounds nuw i8, ptr %4, i64 8
  %17 = load i64, ptr %16, align 8, !tbaa !11
  %18 = icmp ult i64 %17, 16
  call void @llvm.assume(i1 %18)
  br label %_ZNSt7__cxx1112basic_stringIcSt11char_traitsIcESaIcEED2Ev.exit

_ZNKSt7__cxx1112basic_stringIcSt11char_traitsIcESaIcEE11_M_is_localEv.exit.i.i: ; preds = %11
  call void @_ZdlPv(ptr noundef %13) #13
  br label %_ZNSt7__cxx1112basic_stringIcSt11char_traitsIcESaIcEED2Ev.exit

common.resume:                                    ; preds = %_ZNSt7__cxx1112basic_stringIcSt11char_traitsIcESaIcEED2Ev.exit.i.i, %_ZNSt7__cxx1112basic_stringIcSt11char_traitsIcESaIcEED2Ev.exit
  %common.resume.op = phi { ptr, i32 } [ %.pn, %_ZNSt7__cxx1112basic_stringIcSt11char_traitsIcESaIcEED2Ev.exit ], [ %25, %_ZNSt7__cxx1112basic_stringIcSt11char_traitsIcESaIcEED2Ev.exit.i.i ]
  resume { ptr, i32 } %common.resume.op

_ZNSt7__cxx1112basic_stringIcSt11char_traitsIcESaIcEED2Ev.exit: ; preds = %_ZNKSt7__cxx1112basic_stringIcSt11char_traitsIcESaIcEE11_M_is_localEv.exit.i.i, %_ZNKSt7__cxx1112basic_stringIcSt11char_traitsIcESaIcEE11_M_is_localEv.exit.thread.i.i, %9
  %.pn = phi { ptr, i32 } [ %10, %9 ], [ %12, %_ZNKSt7__cxx1112basic_stringIcSt11char_traitsIcESaIcEE11_M_is_localEv.exit.thread.i.i ], [ %12, %_ZNKSt7__cxx1112basic_stringIcSt11char_traitsIcESaIcEE11_M_is_localEv.exit.i.i ]
  call void @llvm.lifetime.end.p0(i64 1, ptr nonnull %5) #11
  call void @llvm.lifetime.end.p0(i64 32, ptr nonnull %4) #11
  br label %common.resume

19:                                               ; preds = %1
  %20 = getelementptr inbounds nuw i8, ptr %0, i64 112
  %21 = load ptr, ptr %20, align 8, !tbaa !162
  %.not.i.i = icmp eq ptr %21, null
  br i1 %.not.i.i, label %22, label %cvClearSet.exit11

22:                                               ; preds = %19
  call void @llvm.lifetime.start.p0(i64 32, ptr nonnull %2) #11
  call void @llvm.lifetime.start.p0(i64 1, ptr nonnull %3) #11
  call void @_ZNSt7__cxx1112basic_stringIcSt11char_traitsIcESaIcEEC2EPKcRKS3_(ptr noundef nonnull align 8 dereferenceable(32) %2, ptr noundef nonnull @.str, ptr noundef nonnull align 1 dereferenceable(1) %3)
  invoke void @_ZN2cv5errorEiRKNSt7__cxx1112basic_stringIcSt11char_traitsIcESaIcEEEPKcS9_i(i32 noundef -27, ptr noundef nonnull align 8 dereferenceable(32) %2, ptr noundef nonnull @__func__.cvClearSeq, ptr noundef nonnull @.str.1, i32 noundef 1596) #12
          to label %23 unwind label %24

23:                                               ; preds = %22
  unreachable

24:                                               ; preds = %22
  %25 = landingpad { ptr, i32 }
          cleanup
  %26 = load ptr, ptr %2, align 8, !tbaa !3
  %27 = getelementptr inbounds nuw i8, ptr %2, i64 16
  %28 = icmp eq ptr %26, %27
  br i1 %28, label %_ZNKSt7__cxx1112basic_stringIcSt11char_traitsIcESaIcEE11_M_is_localEv.exit.thread.i.i.i.i, label %_ZNKSt7__cxx1112basic_stringIcSt11char_traitsIcESaIcEE11_M_is_localEv.exit.i.i.i.i

_ZNKSt7__cxx1112basic_stringIcSt11char_traitsIcESaIcEE11_M_is_localEv.exit.thread.i.i.i.i: ; preds = %24
  %29 = getelementptr inbounds nuw i8, ptr %2, i64 8
  %30 = load i64, ptr %29, align 8, !tbaa !11
  %31 = icmp ult i64 %30, 16
  call void @llvm.assume(i1 %31)
  br label %_ZNSt7__cxx1112basic_stringIcSt11char_traitsIcESaIcEED2Ev.exit.i.i

_ZNKSt7__cxx1112basic_stringIcSt11char_traitsIcESaIcEE11_M_is_localEv.exit.i.i.i.i: ; preds = %24
  call void @_ZdlPv(ptr noundef %26) #13
  br label %_ZNSt7__cxx1112basic_stringIcSt11char_traitsIcESaIcEED2Ev.exit.i.i

_ZNSt7__cxx1112basic_stringIcSt11char_traitsIcESaIcEED2Ev.exit.i.i: ; preds = %_ZNKSt7__cxx1112basic_stringIcSt11char_traitsIcESaIcEE11_M_is_localEv.exit.i.i.i.i, %_ZNKSt7__cxx1112basic_stringIcSt11char_traitsIcESaIcEE11_M_is_localEv.exit.thread.i.i.i.i
  call void @llvm.lifetime.end.p0(i64 1, ptr nonnull %3) #11
  call void @llvm.lifetime.end.p0(i64 32, ptr nonnull %2) #11
  br label %common.resume

cvClearSet.exit11:                                ; preds = %19
  %32 = getelementptr inbounds nuw i8, ptr %21, i64 40
  %33 = load i32, ptr %32, align 8, !tbaa !42
  tail call void @cvSeqPopMulti(ptr noundef nonnull %21, ptr noundef null, i32 noundef %33, i32 noundef 0)
  %34 = getelementptr inbounds nuw i8, ptr %21, i64 96
  store ptr null, ptr %34, align 8, !tbaa !152
  %35 = getelementptr inbounds nuw i8, ptr %21, i64 104
  store i32 0, ptr %35, align 8, !tbaa !160
  %36 = getelementptr inbounds nuw i8, ptr %0, i64 40
  %37 = load i32, ptr %36, align 8, !tbaa !42
  tail call void @cvSeqPopMulti(ptr noundef nonnull %0, ptr noundef null, i32 noundef %37, i32 noundef 0)
  %38 = getelementptr inbounds nuw i8, ptr %0, i64 96
  store ptr null, ptr %38, align 8, !tbaa !152
  %39 = getelementptr inbounds nuw i8, ptr %0, i64 104
  store i32 0, ptr %39, align 8, !tbaa !160
  ret void
}